; Function Attrs: nounwind sspstrong uwtable
define internal i64 @builtin_inline_class_120(ptr readnone captures(none) %0, i64 noundef %1) #2 {
  %3 = and i64 %1, 1
  %.not.i = icmp eq i64 %3, 0
  br i1 %.not.i, label %7, label %4

4:                                                ; preds = %2
  %5 = xor i64 %1, -1
  %6 = or disjoint i64 %5, 1
  br label %rb_int_comp.exit

7:                                                ; preds = %2
  %8 = icmp eq i64 %1, 0
  %9 = and i64 %1, 6
  %10 = icmp ne i64 %9, 0
  %11 = or i1 %8, %10
  br i1 %11, label %rb_int_comp.exit, label %rbimpl_RB_TYPE_P_fastpath.exit.i

rbimpl_RB_TYPE_P_fastpath.exit.i:                 ; preds = %7
  %12 = inttoptr i64 %1 to ptr
  %13 = load i64, ptr %12, align 8, !tbaa !11
  %14 = and i64 %13, 31
  %15 = icmp eq i64 %14, 10
  br i1 %15, label %16, label %rb_int_comp.exit

16:                                               ; preds = %rbimpl_RB_TYPE_P_fastpath.exit.i
  %17 = tail call i64 @rb_big_comp(i64 noundef %1) #26
  br label %rb_int_comp.exit

rb_int_comp.exit:                                 ; preds = %4, %7, %rbimpl_RB_TYPE_P_fastpath.exit.i, %16
  %.0.i = phi i64 [ %6, %4 ], [ %17, %16 ], [ 4, %rbimpl_RB_TYPE_P_fastpath.exit.i ], [ 4, %7 ]
  ret i64 %.0.i
}